; Function Attrs: nounwind uwtable
define internal fastcc void @dissect_session_set_app_config_rsp(ptr noundef %0, ptr %.8.val, ptr noundef %1) unnamed_addr #0 {
  tail call void (ptr, i32, ptr, ...) @col_add_fstr(ptr noundef %.8.val, i32 noundef 25, ptr noundef nonnull @.str.298) #2
  %3 = load i32, ptr @hf_uci_status, align 4
  %4 = tail call ptr @proto_tree_add_item(ptr noundef %1, i32 noundef %3, ptr noundef %0, i32 noundef 4, i32 noundef 1, i32 noundef 0) #2
  %5 = tail call zeroext i8 @tvb_get_guint8(ptr noundef %0, i32 noundef 5) #2
  %6 = zext i8 %5 to i32
  %7 = load i32, ptr @hf_uci_app_config_parameters_count, align 4
  %8 = tail call ptr @proto_tree_add_item(ptr noundef %1, i32 noundef %7, ptr noundef %0, i32 noundef 5, i32 noundef 1, i32 noundef 0) #2
  %9 = icmp eq i8 %5, 0
  br i1 %9, label %.loopexit, label %10

10:                                               ; preds = %2
  %11 = load i32, ptr @ett_uci_app_config_parameters, align 4
  %12 = tail call ptr @proto_tree_add_subtree(ptr noundef %1, ptr noundef %0, i32 noundef 6, i32 noundef -1, i32 noundef %11, ptr noundef null, ptr noundef nonnull @.str.297) #2
  br label %13

13:                                               ; preds = %10, %13
  %.02 = phi i32 [ 6, %10 ], [ %24, %13 ]
  %.0311 = phi i32 [ 0, %10 ], [ %25, %13 ]
  %14 = tail call zeroext i8 @tvb_get_guint8(ptr noundef %0, i32 noundef %.02) #2
  %15 = zext i8 %14 to i32
  %16 = load i32, ptr @ett_uci_app_config_parameter, align 4
  %17 = tail call ptr @val_to_str(i32 noundef %15, ptr noundef nonnull @app_config_parameter_type_vals, ptr noundef nonnull @.str.280) #2
  %18 = tail call ptr @proto_tree_add_subtree(ptr noundef %12, ptr noundef %0, i32 noundef %.02, i32 noundef 2, i32 noundef %16, ptr noundef null, ptr noundef %17) #2
  %19 = load i32, ptr @hf_uci_app_config_parameter_type, align 4
  %20 = tail call ptr @proto_tree_add_item(ptr noundef %18, i32 noundef %19, ptr noundef %0, i32 noundef %.02, i32 noundef 1, i32 noundef 0) #2
  %21 = or disjoint i32 %.02, 1
  %22 = load i32, ptr @hf_uci_app_config_parameter_status, align 4
  %23 = tail call ptr @proto_tree_add_item(ptr noundef %18, i32 noundef %22, ptr noundef %0, i32 noundef %21, i32 noundef 1, i32 noundef 0) #2
  %24 = add nuw nsw i32 %.02, 2
  %25 = add nuw nsw i32 %.0311, 1
  %exitcond.not = icmp eq i32 %25, %6
  br i1 %exitcond.not, label %.loopexit, label %13, !llvm.loop !10

.loopexit:                                        ; preds = %13, %2
  ret void
}